#include <math.h>
#include <stdio.h>
#include <stdlib.h>
#include <string.h>

int main(){
	int i,m=0,k,n,sz[1000],s[1000];
	scanf("%d %d",&n,&k);
	for(i=0;i<n;i++){
		scanf("%d",&sz[i]);
		s[m]=sz[i];
	    m++;}
    for(i=0;i<n;i++){
		if(i==n-1){
			break;}
		for(m=n-1;m>=i+1;m--){
			if(s[m]+sz[i]==k){
			printf("yes");
			break;
			}
		}
            if(s[m]+sz[i]==k){
				break;}
	}
	    if(i==n-1){
	    	printf("no");
		}
	return 0;
}

